; ModuleID = '37/1256.c'
source_filename = "37/1256.c"
target datalayout = "e-m:e-p270:32:32-p271:32:32-p272:64:64-i64:64-f80:128-n8:16:32:64-S128"
target triple = "x86_64-pc-linux-gnu"

@.str = private unnamed_addr constant [3 x i8] c"%d\00", align 1
@.str.1 = private unnamed_addr constant [3 x i8] c"%s\00", align 1
@.str.2 = private unnamed_addr constant [4 x i8] c"%c\0A\00", align 1
@.str.3 = private unnamed_addr constant [4 x i8] c"no\0A\00", align 1

; Function Attrs: noinline nounwind uwtable
define dso_local i32 @main() #0 {
  %1 = alloca i32, align 4
  %2 = alloca [1000 x i8], align 16
  %3 = alloca i8, align 1
  %4 = alloca i32, align 4
  %5 = alloca i32, align 4
  %6 = alloca i32, align 4
  %7 = alloca i32, align 4
  %8 = alloca i32, align 4
  store i32 0, i32* %1, align 4
  %9 = call i32 (i8*, ...) @__isoc99_scanf(i8* getelementptr inbounds ([3 x i8], [3 x i8]* @.str, i64 0, i64 0), i32* %4)
  store i32 0, i32* %5, align 4
  br label %10

10:                                               ; preds = %75, %0
  %11 = load i32, i32* %5, align 4
  %12 = load i32, i32* %4, align 4
  %13 = icmp slt i32 %11, %12
  br i1 %13, label %14, label %78

14:                                               ; preds = %10
  %15 = getelementptr inbounds [1000 x i8], [1000 x i8]* %2, i64 0, i64 0
  %16 = call i32 (i8*, ...) @__isoc99_scanf(i8* getelementptr inbounds ([3 x i8], [3 x i8]* @.str.1, i64 0, i64 0), i8* %15)
  store i32 0, i32* %6, align 4
  br label %17

17:                                               ; preds = %66, %14
  %18 = load i32, i32* %6, align 4
  %19 = sext i32 %18 to i64
  %20 = getelementptr inbounds [1000 x i8], [1000 x i8]* %2, i64 0, i64 %19
  %21 = load i8, i8* %20, align 1
  %22 = sext i8 %21 to i32
  %23 = icmp ne i32 %22, 0
  br i1 %23, label %24, label %69

24:                                               ; preds = %17
  store i32 0, i32* %8, align 4
  store i32 0, i32* %7, align 4
  br label %25

25:                                               ; preds = %58, %24
  br i1 true, label %26, label %61

26:                                               ; preds = %25
  %27 = load i32, i32* %6, align 4
  %28 = sext i32 %27 to i64
  %29 = getelementptr inbounds [1000 x i8], [1000 x i8]* %2, i64 0, i64 %28
  %30 = load i8, i8* %29, align 1
  %31 = sext i8 %30 to i32
  %32 = load i32, i32* %7, align 4
  %33 = sext i32 %32 to i64
  %34 = getelementptr inbounds [1000 x i8], [1000 x i8]* %2, i64 0, i64 %33
  %35 = load i8, i8* %34, align 1
  %36 = sext i8 %35 to i32
  %37 = icmp eq i32 %31, %36
  br i1 %37, label %38, label %43

38:                                               ; preds = %26
  %39 = load i32, i32* %6, align 4
  %40 = load i32, i32* %7, align 4
  %41 = icmp ne i32 %39, %40
  br i1 %41, label %42, label %43

42:                                               ; preds = %38
  br label %61

43:                                               ; preds = %38, %26
  %44 = load i32, i32* %7, align 4
  %45 = sext i32 %44 to i64
  %46 = getelementptr inbounds [1000 x i8], [1000 x i8]* %2, i64 0, i64 0
  %47 = call i64 @strlen(i8* %46) #3
  %48 = icmp eq i64 %45, %47
  br i1 %48, label %49, label %56

49:                                               ; preds = %43
  %50 = load i32, i32* %6, align 4
  %51 = sext i32 %50 to i64
  %52 = getelementptr inbounds [1000 x i8], [1000 x i8]* %2, i64 0, i64 %51
  %53 = load i8, i8* %52, align 1
  %54 = sext i8 %53 to i32
  %55 = call i32 (i8*, ...) @printf(i8* getelementptr inbounds ([4 x i8], [4 x i8]* @.str.2, i64 0, i64 0), i32 %54)
  store i32 1, i32* %8, align 4
  br label %61

56:                                               ; preds = %43
  br label %57

57:                                               ; preds = %56
  br label %58

58:                                               ; preds = %57
  %59 = load i32, i32* %7, align 4
  %60 = add nsw i32 %59, 1
  store i32 %60, i32* %7, align 4
  br label %25

61:                                               ; preds = %49, %42, %25
  %62 = load i32, i32* %8, align 4
  %63 = icmp eq i32 %62, 1
  br i1 %63, label %64, label %65

64:                                               ; preds = %61
  br label %69

65:                                               ; preds = %61
  br label %66

66:                                               ; preds = %65
  %67 = load i32, i32* %6, align 4
  %68 = add nsw i32 %67, 1
  store i32 %68, i32* %6, align 4
  br label %17

69:                                               ; preds = %64, %17
  %70 = load i32, i32* %8, align 4
  %71 = icmp eq i32 %70, 0
  br i1 %71, label %72, label %74

72:                                               ; preds = %69
  %73 = call i32 (i8*, ...) @printf(i8* getelementptr inbounds ([4 x i8], [4 x i8]* @.str.3, i64 0, i64 0))
  br label %74

74:                                               ; preds = %72, %69
  br label %75

75:                                               ; preds = %74
  %76 = load i32, i32* %5, align 4
  %77 = add nsw i32 %76, 1
  store i32 %77, i32* %5, align 4
  br label %10

78:                                               ; preds = %10
  ret i32 0
}

declare dso_local i32 @__isoc99_scanf(i8*, ...) #1

; Function Attrs: nounwind readonly
declare dso_local i64 @strlen(i8*) #2

declare dso_local i32 @printf(i8*, ...) #1


!llvm.module.flags = !{!0}
!llvm.ident = !{!1}

!0 = !{i32 1, !"wchar_size", i32 4}
!1 = !{!"clang version 10.0.0-4ubuntu1 "}
