; ModuleID = 'source-C-CXX/36/1256.c'
source_filename = "source-C-CXX/36/1256.c"
target datalayout = "e-m:e-p270:32:32-p271:32:32-p272:64:64-i64:64-f80:128-n8:16:32:64-S128"
target triple = "x86_64-pc-linux-gnu"

@.str = private unnamed_addr constant [3 x i8] c"%d\00", align 1
@.str.1 = private unnamed_addr constant [3 x i8] c"%s\00", align 1
@.str.2 = private unnamed_addr constant [4 x i8] c"%c\0A\00", align 1
@str = private unnamed_addr constant [3 x i8] c"no\00", align 1

; Function Attrs: nofree nounwind sspstrong uwtable
define dso_local i32 @main() local_unnamed_addr #0 {
  %1 = alloca [1000 x i8], align 16
  %2 = alloca i32, align 4
  %3 = getelementptr inbounds [1000 x i8], [1000 x i8]* %1, i64 0, i64 0
  call void @llvm.lifetime.start.p0i8(i64 1000, i8* nonnull %3) #5
  %4 = bitcast i32* %2 to i8*
  call void @llvm.lifetime.start.p0i8(i64 4, i8* nonnull %4) #5
  %5 = call i32 (i8*, ...) @__isoc99_scanf(i8* getelementptr inbounds ([3 x i8], [3 x i8]* @.str, i64 0, i64 0), i32* nonnull %2)
  %6 = load i32, i32* %2, align 4, !tbaa !5
  %7 = icmp sgt i32 %6, 0
  br i1 %7, label %8, label %49

8:                                                ; preds = %0, %44
  %9 = phi i32 [ %45, %44 ], [ undef, %0 ]
  %10 = phi i32 [ %46, %44 ], [ 0, %0 ]
  %11 = call i32 (i8*, ...) @__isoc99_scanf(i8* getelementptr inbounds ([3 x i8], [3 x i8]* @.str.1, i64 0, i64 0), i8* nonnull %3)
  %12 = load i8, i8* %3, align 16
  %13 = icmp eq i8 %12, 0
  br i1 %13, label %40, label %14

14:                                               ; preds = %8, %35
  %15 = phi i64 [ %36, %35 ], [ 0, %8 ]
  %16 = phi i8 [ %38, %35 ], [ %12, %8 ]
  %17 = icmp ne i8 %16, %12
  %18 = icmp eq i64 %15, 0
  %19 = select i1 %17, i1 true, i1 %18
  br i1 %19, label %20, label %35

20:                                               ; preds = %14
  %21 = call i64 @strlen(i8* noundef nonnull %3) #6
  br label %28

22:                                               ; preds = %28
  %23 = getelementptr inbounds [1000 x i8], [1000 x i8]* %1, i64 0, i64 %31
  %24 = load i8, i8* %23, align 1, !tbaa !9
  %25 = icmp ne i8 %16, %24
  %26 = icmp eq i64 %15, %31
  %27 = select i1 %25, i1 true, i1 %26
  br i1 %27, label %28, label %35

28:                                               ; preds = %20, %22
  %29 = phi i64 [ 0, %20 ], [ %31, %22 ]
  %30 = icmp eq i64 %21, %29
  %31 = add nuw i64 %29, 1
  br i1 %30, label %32, label %22

32:                                               ; preds = %28
  %33 = sext i8 %16 to i32
  %34 = call i32 (i8*, ...) @printf(i8* nonnull dereferenceable(1) getelementptr inbounds ([4 x i8], [4 x i8]* @.str.2, i64 0, i64 0), i32 %33)
  br label %44

35:                                               ; preds = %22, %14
  %36 = add nuw i64 %15, 1
  %37 = getelementptr inbounds [1000 x i8], [1000 x i8]* %1, i64 0, i64 %36
  %38 = load i8, i8* %37, align 1, !tbaa !9
  %39 = icmp eq i8 %38, 0
  br i1 %39, label %42, label %14, !llvm.loop !10

40:                                               ; preds = %8
  %41 = icmp eq i32 %9, 0
  br i1 %41, label %42, label %44

42:                                               ; preds = %35, %40
  %43 = call i32 @puts(i8* nonnull dereferenceable(1) getelementptr inbounds ([3 x i8], [3 x i8]* @str, i64 0, i64 0))
  br label %44

44:                                               ; preds = %32, %40, %42
  %45 = phi i32 [ 1, %32 ], [ %9, %40 ], [ 0, %42 ]
  %46 = add nuw nsw i32 %10, 1
  %47 = load i32, i32* %2, align 4, !tbaa !5
  %48 = icmp slt i32 %46, %47
  br i1 %48, label %8, label %49, !llvm.loop !12

49:                                               ; preds = %44, %0
  call void @llvm.lifetime.end.p0i8(i64 4, i8* nonnull %4) #5
  call void @llvm.lifetime.end.p0i8(i64 1000, i8* nonnull %3) #5
  ret i32 0
}

; Function Attrs: argmemonly mustprogress nofree nosync nounwind willreturn
declare void @llvm.lifetime.start.p0i8(i64 immarg, i8* nocapture) #1

; Function Attrs: nofree nounwind
declare noundef i32 @__isoc99_scanf(i8* nocapture noundef readonly, ...) local_unnamed_addr #2

; Function Attrs: argmemonly mustprogress nofree nounwind readonly willreturn
declare i64 @strlen(i8* nocapture) local_unnamed_addr #3

; Function Attrs: nofree nounwind
declare noundef i32 @printf(i8* nocapture noundef readonly, ...) local_unnamed_addr #2

; Function Attrs: argmemonly mustprogress nofree nosync nounwind willreturn
declare void @llvm.lifetime.end.p0i8(i64 immarg, i8* nocapture) #1

; Function Attrs: nofree nounwind
declare noundef i32 @puts(i8* nocapture noundef readonly) local_unnamed_addr #4


!llvm.module.flags = !{!0, !1, !2, !3}
!llvm.ident = !{!4}

!0 = !{i32 1, !"wchar_size", i32 4}
!1 = !{i32 7, !"PIC Level", i32 2}
!2 = !{i32 7, !"PIE Level", i32 2}
!3 = !{i32 7, !"uwtable", i32 1}
!4 = !{!"clang version 13.0.0"}
!5 = !{!6, !6, i64 0}
!6 = !{!"int", !7, i64 0}
!7 = !{!"omnipotent char", !8, i64 0}
!8 = !{!"Simple C/C++ TBAA"}
!9 = !{!7, !7, i64 0}
!10 = distinct !{!10, !11}
!11 = !{!"llvm.loop.mustprogress"}
!12 = distinct !{!12, !11}
